target datalayout = "e-m:e-p270:32:32-p271:32:32-p272:64:64-i64:64-i128:128-f80:128-n8:16:32:64-S128"
target triple = "x86_64-unknown-linux-gnu"

%"struct.net::QuicCompressedCertsCache::UncompressedCerts" = type { %class.scoped_refptr, ptr, ptr }
%class.scoped_refptr = type { ptr }
%"class.net::QuicCompressedCertsCache::CachedCerts" = type { %class.scoped_refptr, %"class.std::__cxx11::basic_string", %"class.std::__cxx11::basic_string", %"class.std::__cxx11::basic_string" }
%"class.std::__cxx11::basic_string" = type { %"struct.std::__cxx11::basic_string<char>::_Alloc_hider", i64, %union.anon }
%"struct.std::__cxx11::basic_string<char>::_Alloc_hider" = type { ptr }
%union.anon = type { i64, [8 x i8] }
%"class.net::QuicCompressedCertsCache" = type { %"class.base::MRUCache" }
%"class.base::MRUCache" = type { %"class.base::MRUCacheBase" }
%"class.base::MRUCacheBase" = type { ptr, %"class.std::__cxx11::list", %"class.std::map", i64 }
%"class.std::__cxx11::list" = type { %"class.std::__cxx11::_List_base" }
%"class.std::__cxx11::_List_base" = type { %"struct.std::__cxx11::_List_base<std::pair<unsigned long, net::QuicCompressedCertsCache::CachedCerts>, std::allocator<std::pair<unsigned long, net::QuicCompressedCertsCache::CachedCerts>>>::_List_impl" }
%"struct.std::__cxx11::_List_base<std::pair<unsigned long, net::QuicCompressedCertsCache::CachedCerts>, std::allocator<std::pair<unsigned long, net::QuicCompressedCertsCache::CachedCerts>>>::_List_impl" = type { %"struct.std::__detail::_List_node_header" }
%"struct.std::__detail::_List_node_header" = type { %"struct.std::__detail::_List_node_base", i64 }
%"struct.std::__detail::_List_node_base" = type { ptr, ptr }
%"class.std::map" = type { %"class.std::_Rb_tree" }
%"class.std::_Rb_tree" = type { %"struct.std::_Rb_tree<unsigned long, std::pair<const unsigned long, std::_List_iterator<std::pair<unsigned long, net::QuicCompressedCertsCache::CachedCerts>>>, std::_Select1st<std::pair<const unsigned long, std::_List_iterator<std::pair<unsigned long, net::QuicCompressedCertsCache::CachedCerts>>>>, std::less<unsigned long>>::_Rb_tree_impl" }
%"struct.std::_Rb_tree<unsigned long, std::pair<const unsigned long, std::_List_iterator<std::pair<unsigned long, net::QuicCompressedCertsCache::CachedCerts>>>, std::_Select1st<std::pair<const unsigned long, std::_List_iterator<std::pair<unsigned long, net::QuicCompressedCertsCache::CachedCerts>>>>, std::less<unsigned long>>::_Rb_tree_impl" = type { %"struct.std::_Rb_tree_key_compare", %"struct.std::_Rb_tree_header" }
%"struct.std::_Rb_tree_key_compare" = type { %"struct.std::less" }
%"struct.std::less" = type { i8 }
%"struct.std::_Rb_tree_header" = type { %"struct.std::_Rb_tree_node_base", i64 }
%"struct.std::_Rb_tree_node_base" = type { i32, ptr, ptr, ptr }
%"struct.std::_List_iterator" = type { ptr }

@_ZN3net24QuicCompressedCertsCache17UncompressedCertsD1Ev = dso_local unnamed_addr alias void (ptr), ptr @_ZN3net24QuicCompressedCertsCache17UncompressedCertsD2Ev
@_ZN3net24QuicCompressedCertsCache11CachedCertsD1Ev = dso_local unnamed_addr alias void (ptr), ptr @_ZN3net24QuicCompressedCertsCache11CachedCertsD2Ev

; Function Attrs: mustprogress uwtable
define dso_local void @_ZN3net24QuicCompressedCertsCache6InsertERK13scoped_refptrINS_11ProofSource5ChainEERKNSt7__cxx1112basic_stringIcSt11char_traitsIcESaIcEEESE_SE_(ptr noundef nonnull align 8 dereferenceable(88) %this, ptr noundef nonnull align 8 dereferenceable(8) %chain, ptr noundef nonnull align 8 dereferenceable(32) %client_common_set_hashes, ptr noundef nonnull align 8 dereferenceable(32) %client_cached_cert_hashes, ptr noundef nonnull align 8 dereferenceable(32) %compressed_cert) #0 align 2 personality ptr @__gxx_personality_v0 {
entry:
  %this.addr = alloca ptr, align 8
  %chain.addr = alloca ptr, align 8
  %client_common_set_hashes.addr = alloca ptr, align 8
  %client_cached_cert_hashes.addr = alloca ptr, align 8
  %compressed_cert.addr = alloca ptr, align 8
  %uncompressed_certs = alloca %"struct.net::QuicCompressedCertsCache::UncompressedCerts", align 8
  %key = alloca i64, align 8
  %exn.slot = alloca ptr, align 8
  %ehselector.slot = alloca i32, align 4
  %ref.tmp = alloca %"class.net::QuicCompressedCertsCache::CachedCerts", align 8
  %coerce = alloca %"struct.std::_List_iterator", align 8
  store ptr %this, ptr %this.addr, align 8
  store ptr %chain, ptr %chain.addr, align 8
  store ptr %client_common_set_hashes, ptr %client_common_set_hashes.addr, align 8
  store ptr %client_cached_cert_hashes, ptr %client_cached_cert_hashes.addr, align 8
  store ptr %compressed_cert, ptr %compressed_cert.addr, align 8
  %this1 = load ptr, ptr %this.addr, align 8
  %0 = load ptr, ptr %chain.addr, align 8
  %1 = load ptr, ptr %client_common_set_hashes.addr, align 8
  %2 = load ptr, ptr %client_cached_cert_hashes.addr, align 8
  call void @_ZN3net24QuicCompressedCertsCache17UncompressedCertsC1ERK13scoped_refptrINS_11ProofSource5ChainEEPKNSt7__cxx1112basic_stringIcSt11char_traitsIcESaIcEEESF_(ptr noundef nonnull align 8 dereferenceable(24) %uncompressed_certs, ptr noundef nonnull align 8 dereferenceable(8) %0, ptr noundef %1, ptr noundef %2)
  %call = invoke noundef i64 @_ZN3net24QuicCompressedCertsCache28ComputeUncompressedCertsHashERKNS0_17UncompressedCertsE(ptr noundef nonnull align 8 dereferenceable(88) %this1, ptr noundef nonnull align 8 dereferenceable(24) %uncompressed_certs)
          to label %invoke.cont unwind label %lpad

invoke.cont:                                      ; preds = %entry
  store i64 %call, ptr %key, align 8
  %certs_cache_ = getelementptr inbounds %"class.net::QuicCompressedCertsCache", ptr %this1, i32 0, i32 0
  %3 = load ptr, ptr %compressed_cert.addr, align 8
  invoke void @_ZN3net24QuicCompressedCertsCache11CachedCertsC1ERKNS0_17UncompressedCertsERKNSt7__cxx1112basic_stringIcSt11char_traitsIcESaIcEEE(ptr noundef nonnull align 8 dereferenceable(104) %ref.tmp, ptr noundef nonnull align 8 dereferenceable(24) %uncompressed_certs, ptr noundef nonnull align 8 dereferenceable(32) %3)
          to label %invoke.cont2 unwind label %lpad

invoke.cont2:                                     ; preds = %invoke.cont
  %call5 = invoke ptr @_ZN4base12MRUCacheBaseImN3net24QuicCompressedCertsCache11CachedCertsESt4lessImENS_19MRUCacheStandardMapEE3PutIS3_EESt14_List_iteratorISt4pairImS3_EERKmOT_(ptr noundef nonnull align 8 dereferenceable(88) %certs_cache_, ptr noundef nonnull align 8 dereferenceable(8) %key, ptr noundef nonnull align 8 dereferenceable(104) %ref.tmp)
          to label %invoke.cont4 unwind label %lpad3

invoke.cont4:                                     ; preds = %invoke.cont2
  %coerce.dive = getelementptr inbounds %"struct.std::_List_iterator", ptr %coerce, i32 0, i32 0
  store ptr %call5, ptr %coerce.dive, align 8
  call void @_ZN3net24QuicCompressedCertsCache11CachedCertsD1Ev(ptr noundef nonnull align 8 dereferenceable(104) %ref.tmp) #11
  call void @_ZN3net24QuicCompressedCertsCache17UncompressedCertsD1Ev(ptr noundef nonnull align 8 dereferenceable(24) %uncompressed_certs) #11
  ret void

lpad:                                             ; preds = %invoke.cont, %entry
  %4 = landingpad { ptr, i32 }
          cleanup
  %5 = extractvalue { ptr, i32 } %4, 0
  store ptr %5, ptr %exn.slot, align 8
  %6 = extractvalue { ptr, i32 } %4, 1
  store i32 %6, ptr %ehselector.slot, align 4
  br label %ehcleanup

lpad3:                                            ; preds = %invoke.cont2
  %7 = landingpad { ptr, i32 }
          cleanup
  %8 = extractvalue { ptr, i32 } %7, 0
  store ptr %8, ptr %exn.slot, align 8
  %9 = extractvalue { ptr, i32 } %7, 1
  store i32 %9, ptr %ehselector.slot, align 4
  call void @_ZN3net24QuicCompressedCertsCache11CachedCertsD1Ev(ptr noundef nonnull align 8 dereferenceable(104) %ref.tmp) #11
  br label %ehcleanup

ehcleanup:                                        ; preds = %lpad3, %lpad
  call void @_ZN3net24QuicCompressedCertsCache17UncompressedCertsD1Ev(ptr noundef nonnull align 8 dereferenceable(24) %uncompressed_certs) #11
  br label %eh.resume

eh.resume:                                        ; preds = %ehcleanup
  %exn = load ptr, ptr %exn.slot, align 8
  %sel = load i32, ptr %ehselector.slot, align 4
  %lpad.val = insertvalue { ptr, i32 } poison, ptr %exn, 0
  %lpad.val6 = insertvalue { ptr, i32 } %lpad.val, i32 %sel, 1
  resume { ptr, i32 } %lpad.val6
}