; Function Attrs: mustprogress uwtable
define dso_local void @_ZN3net24QuicCompressedCertsCache6InsertERK13scoped_refptrINS_11ProofSource5ChainEERKNSt7__cxx1112basic_stringIcSt11char_traitsIcESaIcEEESE_SE_(ptr noundef nonnull align 8 dereferenceable(88) %this, ptr nocapture noundef nonnull readonly align 8 dereferenceable(8) %chain, ptr noundef nonnull align 8 dereferenceable(32) %client_common_set_hashes, ptr noundef nonnull align 8 dereferenceable(32) %client_cached_cert_hashes, ptr noundef nonnull align 8 dereferenceable(32) %compressed_cert) local_unnamed_addr #4 align 2 personality ptr @__gxx_personality_v0 {
entry:
  %uncompressed_certs = alloca %"struct.net::QuicCompressedCertsCache::UncompressedCerts", align 8
  %key = alloca i64, align 8
  %ref.tmp = alloca %"class.net::QuicCompressedCertsCache::CachedCerts", align 8
  %0 = load ptr, ptr %chain, align 8
  store ptr %0, ptr %uncompressed_certs, align 8
  %tobool.not.i.i = icmp eq ptr %0, null
  br i1 %tobool.not.i.i, label %_ZN3net24QuicCompressedCertsCache17UncompressedCertsC2ERK13scoped_refptrINS_11ProofSource5ChainEEPKNSt7__cxx1112basic_stringIcSt11char_traitsIcESaIcEEESF_.exit, label %if.then.i.i

if.then.i.i:                                      ; preds = %entry
  %add.ptr.i.i.i = getelementptr inbounds i8, ptr %0, i64 8
  %1 = load i32, ptr %add.ptr.i.i.i, align 4
  %inc.i.i.i.i.i = add nsw i32 %1, 1
  store i32 %inc.i.i.i.i.i, ptr %add.ptr.i.i.i, align 4
  br label %_ZN3net24QuicCompressedCertsCache17UncompressedCertsC2ERK13scoped_refptrINS_11ProofSource5ChainEEPKNSt7__cxx1112basic_stringIcSt11char_traitsIcESaIcEEESF_.exit

_ZN3net24QuicCompressedCertsCache17UncompressedCertsC2ERK13scoped_refptrINS_11ProofSource5ChainEEPKNSt7__cxx1112basic_stringIcSt11char_traitsIcESaIcEEESF_.exit: ; preds = %entry, %if.then.i.i
  %client_common_set_hashes3.i = getelementptr inbounds i8, ptr %uncompressed_certs, i64 8
  store ptr %client_common_set_hashes, ptr %client_common_set_hashes3.i, align 8
  %client_cached_cert_hashes4.i = getelementptr inbounds i8, ptr %uncompressed_certs, i64 16
  store ptr %client_cached_cert_hashes, ptr %client_cached_cert_hashes4.i, align 8
  %call = call noundef i64 @_ZN3net24QuicCompressedCertsCache28ComputeUncompressedCertsHashERKNS0_17UncompressedCertsE(ptr nonnull align 8 poison, ptr noundef nonnull align 8 dereferenceable(24) %uncompressed_certs)
  store i64 %call, ptr %key, align 8
  invoke void @_ZN3net24QuicCompressedCertsCache11CachedCertsC2ERKNS0_17UncompressedCertsERKNSt7__cxx1112basic_stringIcSt11char_traitsIcESaIcEEE(ptr noundef nonnull align 8 dereferenceable(104) %ref.tmp, ptr noundef nonnull align 8 dereferenceable(24) %uncompressed_certs, ptr noundef nonnull align 8 dereferenceable(32) %compressed_cert)
          to label %invoke.cont2 unwind label %lpad

invoke.cont2:                                     ; preds = %_ZN3net24QuicCompressedCertsCache17UncompressedCertsC2ERK13scoped_refptrINS_11ProofSource5ChainEEPKNSt7__cxx1112basic_stringIcSt11char_traitsIcESaIcEEESF_.exit
  %call5 = invoke ptr @_ZN4base12MRUCacheBaseImN3net24QuicCompressedCertsCache11CachedCertsESt4lessImENS_19MRUCacheStandardMapEE3PutIS3_EESt14_List_iteratorISt4pairImS3_EERKmOT_(ptr noundef nonnull align 8 dereferenceable(88) %this, ptr noundef nonnull align 8 dereferenceable(8) %key, ptr noundef nonnull align 8 dereferenceable(104) %ref.tmp)
          to label %invoke.cont4 unwind label %lpad3

invoke.cont4:                                     ; preds = %invoke.cont2
  %compressed_cert_.i = getelementptr inbounds i8, ptr %ref.tmp, i64 72
  call void @_ZNSt7__cxx1112basic_stringIcSt11char_traitsIcESaIcEED1Ev(ptr noundef nonnull align 8 dereferenceable(32) %compressed_cert_.i) #13
  %client_cached_cert_hashes_.i = getelementptr inbounds i8, ptr %ref.tmp, i64 40
  call void @_ZNSt7__cxx1112basic_stringIcSt11char_traitsIcESaIcEED1Ev(ptr noundef nonnull align 8 dereferenceable(32) %client_cached_cert_hashes_.i) #13
  %client_common_set_hashes_.i = getelementptr inbounds i8, ptr %ref.tmp, i64 8
  call void @_ZNSt7__cxx1112basic_stringIcSt11char_traitsIcESaIcEED1Ev(ptr noundef nonnull align 8 dereferenceable(32) %client_common_set_hashes_.i) #13
  %2 = load ptr, ptr %ref.tmp, align 8
  %tobool.not.i.i2 = icmp eq ptr %2, null
  br i1 %tobool.not.i.i2, label %_ZN3net24QuicCompressedCertsCache11CachedCertsD2Ev.exit, label %if.then.i.i3

if.then.i.i3:                                     ; preds = %invoke.cont4
  %add.ptr.i.i.i4 = getelementptr inbounds i8, ptr %2, i64 8
  %3 = load i32, ptr %add.ptr.i.i.i4, align 4
  %dec.i.i.i.i.i = add nsw i32 %3, -1
  store i32 %dec.i.i.i.i.i, ptr %add.ptr.i.i.i4, align 4
  %cmp.i.i.i.i.i = icmp eq i32 %dec.i.i.i.i.i, 0
  br i1 %cmp.i.i.i.i.i, label %delete.notnull.i.i.i.i, label %_ZN3net24QuicCompressedCertsCache11CachedCertsD2Ev.exit

delete.notnull.i.i.i.i:                           ; preds = %if.then.i.i3
  %vtable.i.i.i.i = load ptr, ptr %2, align 8
  %vfn.i.i.i.i = getelementptr inbounds i8, ptr %vtable.i.i.i.i, i64 8
  %4 = load ptr, ptr %vfn.i.i.i.i, align 8
  call void %4(ptr noundef nonnull align 8 dereferenceable(40) %2) #13
  br label %_ZN3net24QuicCompressedCertsCache11CachedCertsD2Ev.exit

_ZN3net24QuicCompressedCertsCache11CachedCertsD2Ev.exit: ; preds = %invoke.cont4, %if.then.i.i3, %delete.notnull.i.i.i.i
  br i1 %tobool.not.i.i, label %_ZN3net24QuicCompressedCertsCache17UncompressedCertsD2Ev.exit, label %if.then.i.i6

if.then.i.i6:                                     ; preds = %_ZN3net24QuicCompressedCertsCache11CachedCertsD2Ev.exit
  %add.ptr.i.i.i7 = getelementptr inbounds i8, ptr %0, i64 8
  %5 = load i32, ptr %add.ptr.i.i.i7, align 4
  %dec.i.i.i.i.i8 = add nsw i32 %5, -1
  store i32 %dec.i.i.i.i.i8, ptr %add.ptr.i.i.i7, align 4
  %cmp.i.i.i.i.i9 = icmp eq i32 %dec.i.i.i.i.i8, 0
  br i1 %cmp.i.i.i.i.i9, label %delete.notnull.i.i.i.i10, label %_ZN3net24QuicCompressedCertsCache17UncompressedCertsD2Ev.exit

delete.notnull.i.i.i.i10:                         ; preds = %if.then.i.i6
  %vtable.i.i.i.i11 = load ptr, ptr %0, align 8
  %vfn.i.i.i.i12 = getelementptr inbounds i8, ptr %vtable.i.i.i.i11, i64 8
  %6 = load ptr, ptr %vfn.i.i.i.i12, align 8
  call void %6(ptr noundef nonnull align 8 dereferenceable(40) %0) #13
  br label %_ZN3net24QuicCompressedCertsCache17UncompressedCertsD2Ev.exit

_ZN3net24QuicCompressedCertsCache17UncompressedCertsD2Ev.exit: ; preds = %_ZN3net24QuicCompressedCertsCache11CachedCertsD2Ev.exit, %if.then.i.i6, %delete.notnull.i.i.i.i10
  ret void

lpad:                                             ; preds = %_ZN3net24QuicCompressedCertsCache17UncompressedCertsC2ERK13scoped_refptrINS_11ProofSource5ChainEEPKNSt7__cxx1112basic_stringIcSt11char_traitsIcESaIcEEESF_.exit
  %7 = landingpad { ptr, i32 }
          cleanup
  br label %ehcleanup

lpad3:                                            ; preds = %invoke.cont2
  %8 = landingpad { ptr, i32 }
          cleanup
  call void @_ZN3net24QuicCompressedCertsCache11CachedCertsD2Ev(ptr noundef nonnull align 8 dereferenceable(104) %ref.tmp) #13
  br label %ehcleanup

ehcleanup:                                        ; preds = %lpad3, %lpad
  %.pn = phi { ptr, i32 } [ %8, %lpad3 ], [ %7, %lpad ]
  br i1 %tobool.not.i.i, label %_ZN3net24QuicCompressedCertsCache17UncompressedCertsD2Ev.exit21, label %if.then.i.i14

if.then.i.i14:                                    ; preds = %ehcleanup
  %add.ptr.i.i.i15 = getelementptr inbounds i8, ptr %0, i64 8
  %9 = load i32, ptr %add.ptr.i.i.i15, align 4
  %dec.i.i.i.i.i16 = add nsw i32 %9, -1
  store i32 %dec.i.i.i.i.i16, ptr %add.ptr.i.i.i15, align 4
  %cmp.i.i.i.i.i17 = icmp eq i32 %dec.i.i.i.i.i16, 0
  br i1 %cmp.i.i.i.i.i17, label %delete.notnull.i.i.i.i18, label %_ZN3net24QuicCompressedCertsCache17UncompressedCertsD2Ev.exit21

delete.notnull.i.i.i.i18:                         ; preds = %if.then.i.i14
  %vtable.i.i.i.i19 = load ptr, ptr %0, align 8
  %vfn.i.i.i.i20 = getelementptr inbounds i8, ptr %vtable.i.i.i.i19, i64 8
  %10 = load ptr, ptr %vfn.i.i.i.i20, align 8
  call void %10(ptr noundef nonnull align 8 dereferenceable(40) %0) #13
  br label %_ZN3net24QuicCompressedCertsCache17UncompressedCertsD2Ev.exit21

_ZN3net24QuicCompressedCertsCache17UncompressedCertsD2Ev.exit21: ; preds = %ehcleanup, %if.then.i.i14, %delete.notnull.i.i.i.i18
  resume { ptr, i32 } %.pn
}